target datalayout = "e-m:e-p270:32:32-p271:32:32-p272:64:64-i64:64-i128:128-f80:128-n8:16:32:64-S128"
target triple = "x86_64-pc-linux-gnu"

%struct.pkcs7_st = type { ptr, i64, i32, i32, ptr, %union.anon, %struct.PKCS7_CTX_st }
%union.anon = type { ptr }
%struct.PKCS7_CTX_st = type { ptr, ptr }
%struct.pkcs7_signed_st = type { ptr, ptr, ptr, ptr, ptr, ptr }
%struct.asn1_type_st = type { i32, %union.anon.0 }
%union.anon.0 = type { ptr }
%struct.asn1_string_st = type { i32, i32, ptr, i64 }

@.str = private unnamed_addr constant [31 x i8] c"../openssl/crypto/ts/ts_asn1.c\00", align 1
@__func__.PKCS7_to_TS_TST_INFO = private unnamed_addr constant [21 x i8] c"PKCS7_to_TS_TST_INFO\00", align 1
@TS_TST_INFO_it.local_it = internal constant { i8, [7 x i8], i64, ptr, i64, ptr, i64, ptr } { i8 1, [7 x i8] zeroinitializer, i64 16, ptr @TS_TST_INFO_seq_tt, i64 10, ptr null, i64 80, ptr @.str.15 }, align 8

; Function Attrs: nounwind uwtable
define internal ptr @TS_TST_INFO_it() #0 {
  ret ptr @TS_TST_INFO_it.local_it
}

; Function Attrs: nounwind uwtable
define ptr @d2i_TS_TST_INFO(ptr noundef %0, ptr noundef %1, i64 noundef %2) #0 {
  %4 = alloca ptr, align 8
  %5 = alloca ptr, align 8
  %6 = alloca i64, align 8
  store ptr %0, ptr %4, align 8, !tbaa !26
  store ptr %1, ptr %5, align 8, !tbaa !8
  store i64 %2, ptr %6, align 8, !tbaa !10
  %7 = load ptr, ptr %4, align 8, !tbaa !26
  %8 = load ptr, ptr %5, align 8, !tbaa !8
  %9 = load i64, ptr %6, align 8, !tbaa !10
  %10 = call ptr @TS_TST_INFO_it()
  %11 = call ptr @ASN1_item_d2i(ptr noundef %7, ptr noundef %8, i64 noundef %9, ptr noundef %10)
  ret ptr %11
}

; Function Attrs: nounwind uwtable
define ptr @PKCS7_to_TS_TST_INFO(ptr noundef %0) #0 {
  %2 = alloca ptr, align 8
  %3 = alloca ptr, align 8
  %4 = alloca ptr, align 8
  %5 = alloca ptr, align 8
  %6 = alloca ptr, align 8
  %7 = alloca ptr, align 8
  %8 = alloca ptr, align 8
  %9 = alloca i32, align 4
  store ptr %0, ptr %3, align 8, !tbaa !38
  call void @llvm.lifetime.start.p0(i64 8, ptr %4) #3
  call void @llvm.lifetime.start.p0(i64 8, ptr %5) #3
  call void @llvm.lifetime.start.p0(i64 8, ptr %6) #3
  call void @llvm.lifetime.start.p0(i64 8, ptr %7) #3
  call void @llvm.lifetime.start.p0(i64 8, ptr %8) #3
  %10 = load ptr, ptr %3, align 8, !tbaa !38
  %11 = getelementptr inbounds nuw %struct.pkcs7_st, ptr %10, i32 0, i32 4
  %12 = load ptr, ptr %11, align 8, !tbaa !40
  %13 = call i32 @OBJ_obj2nid(ptr noundef %12)
  %14 = icmp eq i32 %13, 22
  br i1 %14, label %16, label %15

15:                                               ; preds = %1
  call void @ERR_new()
  call void @ERR_set_debug(ptr noundef @.str, i32 noundef 213, ptr noundef @__func__.PKCS7_to_TS_TST_INFO)
  call void (i32, i32, ptr, ...) @ERR_set_error(i32 noundef 47, i32 noundef 132, ptr noundef null)
  store ptr null, ptr %2, align 8
  store i32 1, ptr %9, align 4
  br label %55

16:                                               ; preds = %1
  %17 = load ptr, ptr %3, align 8, !tbaa !38
  %18 = call i64 @PKCS7_ctrl(ptr noundef %17, i32 noundef 2, i64 noundef 0, ptr noundef null)
  %19 = icmp ne i64 %18, 0
  br i1 %19, label %20, label %21

20:                                               ; preds = %16
  call void @ERR_new()
  call void @ERR_set_debug(ptr noundef @.str, i32 noundef 217, ptr noundef @__func__.PKCS7_to_TS_TST_INFO)
  call void (i32, i32, ptr, ...) @ERR_set_error(i32 noundef 47, i32 noundef 134, ptr noundef null)
  store ptr null, ptr %2, align 8
  store i32 1, ptr %9, align 4
  br label %55

21:                                               ; preds = %16
  %22 = load ptr, ptr %3, align 8, !tbaa !38
  %23 = getelementptr inbounds nuw %struct.pkcs7_st, ptr %22, i32 0, i32 5
  %24 = load ptr, ptr %23, align 8, !tbaa !47
  store ptr %24, ptr %4, align 8, !tbaa !48
  %25 = load ptr, ptr %4, align 8, !tbaa !48
  %26 = getelementptr inbounds nuw %struct.pkcs7_signed_st, ptr %25, i32 0, i32 5
  %27 = load ptr, ptr %26, align 8, !tbaa !50
  store ptr %27, ptr %5, align 8, !tbaa !38
  %28 = load ptr, ptr %5, align 8, !tbaa !38
  %29 = getelementptr inbounds nuw %struct.pkcs7_st, ptr %28, i32 0, i32 4
  %30 = load ptr, ptr %29, align 8, !tbaa !40
  %31 = call i32 @OBJ_obj2nid(ptr noundef %30)
  %32 = icmp ne i32 %31, 207
  br i1 %32, label %33, label %34

33:                                               ; preds = %21
  call void @ERR_new()
  call void @ERR_set_debug(ptr noundef @.str, i32 noundef 223, ptr noundef @__func__.PKCS7_to_TS_TST_INFO)
  call void (i32, i32, ptr, ...) @ERR_set_error(i32 noundef 47, i32 noundef 132, ptr noundef null)
  store ptr null, ptr %2, align 8
  store i32 1, ptr %9, align 4
  br label %55

34:                                               ; preds = %21
  %35 = load ptr, ptr %5, align 8, !tbaa !38
  %36 = getelementptr inbounds nuw %struct.pkcs7_st, ptr %35, i32 0, i32 5
  %37 = load ptr, ptr %36, align 8, !tbaa !47
  store ptr %37, ptr %6, align 8, !tbaa !57
  %38 = load ptr, ptr %6, align 8, !tbaa !57
  %39 = getelementptr inbounds nuw %struct.asn1_type_st, ptr %38, i32 0, i32 0
  %40 = load i32, ptr %39, align 8, !tbaa !59
  %41 = icmp ne i32 %40, 4
  br i1 %41, label %42, label %43

42:                                               ; preds = %34
  call void @ERR_new()
  call void @ERR_set_debug(ptr noundef @.str, i32 noundef 228, ptr noundef @__func__.PKCS7_to_TS_TST_INFO)
  call void (i32, i32, ptr, ...) @ERR_set_error(i32 noundef 47, i32 noundef 133, ptr noundef null)
  store ptr null, ptr %2, align 8
  store i32 1, ptr %9, align 4
  br label %55

43:                                               ; preds = %34
  %44 = load ptr, ptr %6, align 8, !tbaa !57
  %45 = getelementptr inbounds nuw %struct.asn1_type_st, ptr %44, i32 0, i32 1
  %46 = load ptr, ptr %45, align 8, !tbaa !47
  store ptr %46, ptr %7, align 8, !tbaa !61
  %47 = load ptr, ptr %7, align 8, !tbaa !61
  %48 = getelementptr inbounds nuw %struct.asn1_string_st, ptr %47, i32 0, i32 2
  %49 = load ptr, ptr %48, align 8, !tbaa !62
  store ptr %49, ptr %8, align 8, !tbaa !64
  %50 = load ptr, ptr %7, align 8, !tbaa !61
  %51 = getelementptr inbounds nuw %struct.asn1_string_st, ptr %50, i32 0, i32 0
  %52 = load i32, ptr %51, align 8, !tbaa !65
  %53 = sext i32 %52 to i64
  %54 = call ptr @d2i_TS_TST_INFO(ptr noundef null, ptr noundef %8, i64 noundef %53)
  store ptr %54, ptr %2, align 8
  store i32 1, ptr %9, align 4
  br label %55

55:                                               ; preds = %43, %42, %33, %20, %15
  call void @llvm.lifetime.end.p0(i64 8, ptr %8) #3
  call void @llvm.lifetime.end.p0(i64 8, ptr %7) #3
  call void @llvm.lifetime.end.p0(i64 8, ptr %6) #3
  call void @llvm.lifetime.end.p0(i64 8, ptr %5) #3
  call void @llvm.lifetime.end.p0(i64 8, ptr %4) #3
  %56 = load ptr, ptr %2, align 8
  ret ptr %56
}