; Function Attrs: nounwind uwtable
define ptr @PKCS7_to_TS_TST_INFO(ptr noundef %0) local_unnamed_addr #0 {
  %2 = alloca ptr, align 8
  call void @llvm.lifetime.start.p0(i64 8, ptr nonnull %2) #4
  %3 = getelementptr inbounds nuw i8, ptr %0, i64 24
  %4 = load ptr, ptr %3, align 8, !tbaa !3
  %5 = tail call i32 @OBJ_obj2nid(ptr noundef %4) #4
  %6 = icmp eq i32 %5, 22
  br i1 %6, label %8, label %7

7:                                                ; preds = %1
  tail call void @ERR_new() #4
  tail call void @ERR_set_debug(ptr noundef nonnull @.str, i32 noundef 213, ptr noundef nonnull @__func__.PKCS7_to_TS_TST_INFO) #4
  tail call void (i32, i32, ptr, ...) @ERR_set_error(i32 noundef 47, i32 noundef 132, ptr noundef null) #4
  br label %33

8:                                                ; preds = %1
  %9 = tail call i64 @PKCS7_ctrl(ptr noundef nonnull %0, i32 noundef 2, i64 noundef 0, ptr noundef null) #4
  %.not = icmp eq i64 %9, 0
  br i1 %.not, label %11, label %10

10:                                               ; preds = %8
  tail call void @ERR_new() #4
  tail call void @ERR_set_debug(ptr noundef nonnull @.str, i32 noundef 217, ptr noundef nonnull @__func__.PKCS7_to_TS_TST_INFO) #4
  tail call void (i32, i32, ptr, ...) @ERR_set_error(i32 noundef 47, i32 noundef 134, ptr noundef null) #4
  br label %33

11:                                               ; preds = %8
  %12 = getelementptr inbounds nuw i8, ptr %0, i64 32
  %13 = load ptr, ptr %12, align 8, !tbaa !14
  %14 = getelementptr inbounds nuw i8, ptr %13, i64 40
  %15 = load ptr, ptr %14, align 8, !tbaa !15
  %16 = getelementptr inbounds nuw i8, ptr %15, i64 24
  %17 = load ptr, ptr %16, align 8, !tbaa !3
  %18 = tail call i32 @OBJ_obj2nid(ptr noundef %17) #4
  %.not11 = icmp eq i32 %18, 207
  br i1 %.not11, label %20, label %19

19:                                               ; preds = %11
  tail call void @ERR_new() #4
  tail call void @ERR_set_debug(ptr noundef nonnull @.str, i32 noundef 223, ptr noundef nonnull @__func__.PKCS7_to_TS_TST_INFO) #4
  tail call void (i32, i32, ptr, ...) @ERR_set_error(i32 noundef 47, i32 noundef 132, ptr noundef null) #4
  br label %33

20:                                               ; preds = %11
  %21 = getelementptr inbounds nuw i8, ptr %15, i64 32
  %22 = load ptr, ptr %21, align 8, !tbaa !14
  %23 = load i32, ptr %22, align 8, !tbaa !23
  %.not12 = icmp eq i32 %23, 4
  br i1 %.not12, label %25, label %24

24:                                               ; preds = %20
  tail call void @ERR_new() #4
  tail call void @ERR_set_debug(ptr noundef nonnull @.str, i32 noundef 228, ptr noundef nonnull @__func__.PKCS7_to_TS_TST_INFO) #4
  tail call void (i32, i32, ptr, ...) @ERR_set_error(i32 noundef 47, i32 noundef 133, ptr noundef null) #4
  br label %33

25:                                               ; preds = %20
  %26 = getelementptr inbounds nuw i8, ptr %22, i64 8
  %27 = load ptr, ptr %26, align 8, !tbaa !14
  %28 = getelementptr inbounds nuw i8, ptr %27, i64 8
  %29 = load ptr, ptr %28, align 8, !tbaa !25
  store ptr %29, ptr %2, align 8, !tbaa !27
  %30 = load i32, ptr %27, align 8, !tbaa !28
  %31 = sext i32 %30 to i64
  %32 = call ptr @ASN1_item_d2i(ptr noundef null, ptr noundef nonnull %2, i64 noundef %31, ptr noundef nonnull @TS_TST_INFO_it.local_it) #4
  br label %33

33:                                               ; preds = %25, %24, %19, %10, %7
  %.0 = phi ptr [ null, %10 ], [ null, %19 ], [ null, %24 ], [ %32, %25 ], [ null, %7 ]
  call void @llvm.lifetime.end.p0(i64 8, ptr nonnull %2) #4
  ret ptr %.0
}